target datalayout = "e-m:e-p270:32:32-p271:32:32-p272:64:64-i64:64-i128:128-f80:128-n8:16:32:64-S128"
target triple = "x86_64-pc-linux-gnu"

%struct.jpeg_decompress_struct = type { ptr, ptr, ptr, ptr, i32, i32, ptr, i32, i32, i32, i32, i32, i32, i32, double, i32, i32, i32, i32, i32, i32, i32, i32, i32, i32, i32, i32, i32, i32, i32, i32, i32, i32, ptr, i32, i32, i32, i32, i32, ptr, [4 x ptr], [4 x ptr], [4 x ptr], i32, ptr, i32, i32, [16 x i8], [16 x i8], [16 x i8], i32, i32, i8, i8, i8, i16, i16, i32, i8, i32, ptr, i32, i32, i32, i32, ptr, i32, [4 x ptr], i32, i32, i32, [10 x i32], i32, i32, i32, i32, i32, ptr, ptr, ptr, ptr, ptr, ptr, ptr, ptr, ptr, ptr, ptr }
%struct.jpeg_memory_mgr = type { ptr, ptr, ptr, ptr, ptr, ptr, ptr, ptr, ptr, ptr, ptr, i64, i64 }
%struct.lhuff_entropy_decoder = type { %struct.jpeg_entropy_decoder, %struct.bitread_perm_state, [4 x ptr], [10 x ptr], [10 x ptr], i32, [10 x %struct.lhd_output_ptr_info], [10 x i32] }
%struct.jpeg_entropy_decoder = type { ptr, ptr, ptr, ptr, i32 }
%struct.bitread_perm_state = type { i64, i32 }
%struct.lhd_output_ptr_info = type { i32, i32, i32 }

; Function Attrs: nounwind uwtable
define void @jinit_lhuff_decoder(ptr noundef %0) #0 {
  %2 = alloca ptr, align 8
  %3 = alloca ptr, align 8
  %4 = alloca i32, align 4
  store ptr %0, ptr %2, align 8, !tbaa !3
  call void @llvm.lifetime.start.p0(i64 8, ptr %3) #3
  call void @llvm.lifetime.start.p0(i64 4, ptr %4) #3
  %5 = load ptr, ptr %2, align 8, !tbaa !3
  %6 = getelementptr inbounds nuw %struct.jpeg_decompress_struct, ptr %5, i32 0, i32 1
  %7 = load ptr, ptr %6, align 8, !tbaa !8
  %8 = getelementptr inbounds nuw %struct.jpeg_memory_mgr, ptr %7, i32 0, i32 0
  %9 = load ptr, ptr %8, align 8, !tbaa !32
  %10 = load ptr, ptr %2, align 8, !tbaa !3
  %11 = call ptr %9(ptr noundef %10, i32 noundef 1, i64 noundef 416)
  store ptr %11, ptr %3, align 8, !tbaa !35
  %12 = load ptr, ptr %3, align 8, !tbaa !35
  %13 = load ptr, ptr %2, align 8, !tbaa !3
  %14 = getelementptr inbounds nuw %struct.jpeg_decompress_struct, ptr %13, i32 0, i32 83
  store ptr %12, ptr %14, align 8, !tbaa !36
  %15 = load ptr, ptr %3, align 8, !tbaa !35
  %16 = getelementptr inbounds nuw %struct.lhuff_entropy_decoder, ptr %15, i32 0, i32 0
  %17 = getelementptr inbounds nuw %struct.jpeg_entropy_decoder, ptr %16, i32 0, i32 0
  store ptr @start_pass_lhuff_decoder, ptr %17, align 8, !tbaa !37
  %18 = load ptr, ptr %3, align 8, !tbaa !35
  %19 = getelementptr inbounds nuw %struct.lhuff_entropy_decoder, ptr %18, i32 0, i32 0
  %20 = getelementptr inbounds nuw %struct.jpeg_entropy_decoder, ptr %19, i32 0, i32 2
  store ptr @decode_mcus, ptr %20, align 8, !tbaa !41
  %21 = load ptr, ptr %3, align 8, !tbaa !35
  %22 = getelementptr inbounds nuw %struct.lhuff_entropy_decoder, ptr %21, i32 0, i32 0
  %23 = getelementptr inbounds nuw %struct.jpeg_entropy_decoder, ptr %22, i32 0, i32 3
  store ptr @process_restart, ptr %23, align 8, !tbaa !42
  store i32 0, ptr %4, align 4, !tbaa !43
  br label %24

24:                                               ; preds = %33, %1
  %25 = load i32, ptr %4, align 4, !tbaa !43
  %26 = icmp slt i32 %25, 4
  br i1 %26, label %27, label %36

27:                                               ; preds = %24
  %28 = load ptr, ptr %3, align 8, !tbaa !35
  %29 = getelementptr inbounds nuw %struct.lhuff_entropy_decoder, ptr %28, i32 0, i32 2
  %30 = load i32, ptr %4, align 4, !tbaa !43
  %31 = sext i32 %30 to i64
  %32 = getelementptr inbounds [4 x ptr], ptr %29, i64 0, i64 %31
  store ptr null, ptr %32, align 8, !tbaa !35
  br label %33

33:                                               ; preds = %27
  %34 = load i32, ptr %4, align 4, !tbaa !43
  %35 = add nsw i32 %34, 1
  store i32 %35, ptr %4, align 4, !tbaa !43
  br label %24, !llvm.loop !44

36:                                               ; preds = %24
  call void @llvm.lifetime.end.p0(i64 4, ptr %4) #3
  call void @llvm.lifetime.end.p0(i64 8, ptr %3) #3
  ret void
}