; Function Attrs: nounwind uwtable
define void @jinit_lhuff_decoder(ptr noundef %0) local_unnamed_addr #0 {
  %2 = getelementptr inbounds nuw i8, ptr %0, i64 8
  %3 = load ptr, ptr %2, align 8, !tbaa !3
  %4 = load ptr, ptr %3, align 8, !tbaa !30
  %5 = tail call ptr %4(ptr noundef %0, i32 noundef 1, i64 noundef 416) #4
  %6 = getelementptr inbounds nuw i8, ptr %0, i64 592
  store ptr %5, ptr %6, align 8, !tbaa !33
  store ptr @start_pass_lhuff_decoder, ptr %5, align 8, !tbaa !34
  %7 = getelementptr inbounds nuw i8, ptr %5, i64 16
  store ptr @decode_mcus, ptr %7, align 8, !tbaa !38
  %8 = getelementptr inbounds nuw i8, ptr %5, i64 24
  store ptr @process_restart, ptr %8, align 8, !tbaa !39
  %9 = getelementptr inbounds nuw i8, ptr %5, i64 56
  tail call void @llvm.memset.p0.i64(ptr noundef nonnull align 8 dereferenceable(32) %9, i8 0, i64 32, i1 false), !tbaa !40
  ret void
}